	.text
	.intel_syntax noprefix
	.file	"3u06p2n37zkvpj9l"
	.section	.text._ZN3std10sys_common9backtrace28__rust_begin_short_backtrace17he304cdf2316c41d9E,"ax",@progbits
	.p2align	4, 0x90
	.type	_ZN3std10sys_common9backtrace28__rust_begin_short_backtrace17he304cdf2316c41d9E,@function
_ZN3std10sys_common9backtrace28__rust_begin_short_backtrace17he304cdf2316c41d9E:
.Lfunc_begin0:
	.file	1 "/rustc/9eb3afe9ebe9c7d2b84b71002d44f4a0edac95e0/library/std/src/sys_common" "backtrace.rs"
	.loc	1 117 0
	.cfi_startproc
	sub	rsp, 40
	.cfi_def_cfa_offset 48
	mov	qword ptr [rsp + 8], rdi
.Ltmp0:
	.loc	1 121 18 prologue_end
	call	_ZN4core3ops8function6FnOnce9call_once17h37aad2ac82fd44a2E
.Ltmp1:
	.file	2 "/rustc/9eb3afe9ebe9c7d2b84b71002d44f4a0edac95e0/library/core/src" "hint.rs"
	.loc	2 295 5
	#APP
	#NO_APP
.Ltmp2:
	.loc	1 127 2
	add	rsp, 40
	.cfi_def_cfa_offset 8
	ret
.Ltmp3:
.Lfunc_end0:
	.size	_ZN3std10sys_common9backtrace28__rust_begin_short_backtrace17he304cdf2316c41d9E, .Lfunc_end0-_ZN3std10sys_common9backtrace28__rust_begin_short_backtrace17he304cdf2316c41d9E
	.cfi_endproc

	.section	.text._ZN3std2rt10lang_start17hf0f0d86f81cb114eE,"ax",@progbits
	.hidden	_ZN3std2rt10lang_start17hf0f0d86f81cb114eE
	.globl	_ZN3std2rt10lang_start17hf0f0d86f81cb114eE
	.p2align	4, 0x90
	.type	_ZN3std2rt10lang_start17hf0f0d86f81cb114eE,@function
_ZN3std2rt10lang_start17hf0f0d86f81cb114eE:
.Lfunc_begin1:
	.file	3 "/rustc/9eb3afe9ebe9c7d2b84b71002d44f4a0edac95e0/library/std/src" "rt.rs"
	.loc	3 159 0
	.cfi_startproc
	sub	rsp, 56
	.cfi_def_cfa_offset 64
	mov	eax, ecx
	mov	rcx, rdx
	mov	rdx, rsi
	mov	qword ptr [rsp + 16], rdi
	mov	qword ptr [rsp + 24], rdx
	mov	qword ptr [rsp + 32], rcx
	mov	byte ptr [rsp + 47], al
.Ltmp4:
	.loc	3 166 10 prologue_end
	mov	qword ptr [rsp + 8], rdi
	.loc	3 165 17
	lea	rdi, [rsp + 8]
	lea	rsi, [rip + .L__unnamed_1]
	movzx	r8d, al
	call	qword ptr [rip + _ZN3std2rt19lang_start_internal17h794d1e8722b84ab9E@GOTPCREL]
	mov	qword ptr [rsp], rax
	.loc	3 165 12 is_stmt 0
	mov	rax, qword ptr [rsp]
	mov	qword ptr [rsp + 48], rax
	.loc	3 172 2 is_stmt 1
	add	rsp, 56
	.cfi_def_cfa_offset 8
	ret
.Ltmp5:
.Lfunc_end1:
	.size	_ZN3std2rt10lang_start17hf0f0d86f81cb114eE, .Lfunc_end1-_ZN3std2rt10lang_start17hf0f0d86f81cb114eE
	.cfi_endproc

	.section	".text._ZN3std2rt10lang_start28_$u7b$$u7b$closure$u7d$$u7d$17h2cc189fd19c96a13E","ax",@progbits
	.p2align	4, 0x90
	.type	_ZN3std2rt10lang_start28_$u7b$$u7b$closure$u7d$$u7d$17h2cc189fd19c96a13E,@function
_ZN3std2rt10lang_start28_$u7b$$u7b$closure$u7d$$u7d$17h2cc189fd19c96a13E:
.Lfunc_begin2:
	.loc	3 166 0
	.cfi_startproc
	sub	rsp, 24
	.cfi_def_cfa_offset 32
	mov	qword ptr [rsp + 8], rdi
.Ltmp6:
	.loc	3 166 77 prologue_end
	mov	rdi, qword ptr [rdi]
	.loc	3 166 18 is_stmt 0
	call	_ZN3std10sys_common9backtrace28__rust_begin_short_backtrace17he304cdf2316c41d9E
	call	_ZN54_$LT$$LP$$RP$$u20$as$u20$std..process..Termination$GT$6report17ha97814c312775b23E
	mov	byte ptr [rsp + 7], al
.Ltmp7:
	.file	4 "/rustc/9eb3afe9ebe9c7d2b84b71002d44f4a0edac95e0/library/std/src" "process.rs"
	.loc	4 1820 9 is_stmt 1
	lea	rax, [rsp + 7]
	mov	qword ptr [rsp + 16], rax
.Ltmp8:
	.file	5 "/rustc/9eb3afe9ebe9c7d2b84b71002d44f4a0edac95e0/library/std/src/sys/unix/process" "process_common.rs"
	.loc	5 594 9
	movzx	eax, byte ptr [rsp + 7]
.Ltmp9:
	.loc	3 166 100
	add	rsp, 24
	.cfi_def_cfa_offset 8
	ret
.Ltmp10:
.Lfunc_end2:
	.size	_ZN3std2rt10lang_start28_$u7b$$u7b$closure$u7d$$u7d$17h2cc189fd19c96a13E, .Lfunc_end2-_ZN3std2rt10lang_start28_$u7b$$u7b$closure$u7d$$u7d$17h2cc189fd19c96a13E
	.cfi_endproc

	.section	.text._ZN4core3fmt9Arguments6new_v117h717fef1a43433fc4E,"ax",@progbits
	.p2align	4, 0x90
	.type	_ZN4core3fmt9Arguments6new_v117h717fef1a43433fc4E,@function
_ZN4core3fmt9Arguments6new_v117h717fef1a43433fc4E:
.Lfunc_begin3:
	.file	6 "/rustc/9eb3afe9ebe9c7d2b84b71002d44f4a0edac95e0/library/core/src/fmt" "mod.rs"
	.loc	6 399 0
	.cfi_startproc
	sub	rsp, 168
	.cfi_def_cfa_offset 176
	mov	qword ptr [rsp + 16], r8
	mov	qword ptr [rsp + 24], rcx
	mov	qword ptr [rsp + 32], rdx
	mov	qword ptr [rsp + 40], rsi
	mov	qword ptr [rsp + 48], rdi
	mov	qword ptr [rsp + 56], rdi
	mov	qword ptr [rsp + 136], rsi
	mov	qword ptr [rsp + 144], rdx
	mov	qword ptr [rsp + 152], rcx
	mov	qword ptr [rsp + 160], r8
.Ltmp11:
	.loc	6 400 12 prologue_end
	cmp	rdx, r8
	jb	.LBB3_2
	.loc	6 0 12 is_stmt 0
	mov	rax, qword ptr [rsp + 32]
	mov	rcx, qword ptr [rsp + 16]
	.loc	6 400 56
	add	rcx, 1
	.loc	6 400 41
	cmp	rax, rcx
	seta	al
	.loc	6 400 12
	and	al, 1
	mov	byte ptr [rsp + 71], al
	jmp	.LBB3_3
.LBB3_2:
	mov	byte ptr [rsp + 71], 1
.LBB3_3:
	test	byte ptr [rsp + 71], 1
	jne	.LBB3_5
	.loc	6 0 12
	mov	rax, qword ptr [rsp + 56]
	mov	rcx, qword ptr [rsp + 48]
	mov	rdx, qword ptr [rsp + 16]
	mov	rsi, qword ptr [rsp + 24]
	mov	rdi, qword ptr [rsp + 32]
	mov	r8, qword ptr [rsp + 40]
	.loc	6 403 34 is_stmt 1
	mov	qword ptr [rsp + 120], 0
	.loc	6 403 9 is_stmt 0
	mov	qword ptr [rcx + 16], r8
	mov	qword ptr [rcx + 24], rdi
	mov	r8, qword ptr [rsp + 120]
	mov	rdi, qword ptr [rsp + 128]
	mov	qword ptr [rcx], r8
	mov	qword ptr [rcx + 8], rdi
	mov	qword ptr [rcx + 32], rsi
	mov	qword ptr [rcx + 40], rdx
	.loc	6 404 6 is_stmt 1
	add	rsp, 168
	.cfi_def_cfa_offset 8
	ret
.LBB3_5:
	.cfi_def_cfa_offset 176
	.loc	6 401 13
	lea	rsi, [rip + .L__unnamed_2]
	lea	rcx, [rip + .L__unnamed_3]
	xor	eax, eax
	mov	r8d, eax
	lea	rdi, [rsp + 72]
	mov	qword ptr [rsp + 8], rdi
	mov	edx, 1
	call	_ZN4core3fmt9Arguments6new_v117h717fef1a43433fc4E
	mov	rdi, qword ptr [rsp + 8]
	lea	rsi, [rip + .L__unnamed_4]
	mov	rax, qword ptr [rip + _ZN4core9panicking9panic_fmt17h87c8fa127debfca6E@GOTPCREL]
	call	rax
	ud2
.Ltmp12:
.Lfunc_end3:
	.size	_ZN4core3fmt9Arguments6new_v117h717fef1a43433fc4E, .Lfunc_end3-_ZN4core3fmt9Arguments6new_v117h717fef1a43433fc4E
	.cfi_endproc

	.section	".text._ZN4core3ops8function6FnOnce40call_once$u7b$$u7b$vtable.shim$u7d$$u7d$17haea2aad4c972e4d3E","ax",@progbits
	.p2align	4, 0x90
	.type	_ZN4core3ops8function6FnOnce40call_once$u7b$$u7b$vtable.shim$u7d$$u7d$17haea2aad4c972e4d3E,@function
_ZN4core3ops8function6FnOnce40call_once$u7b$$u7b$vtable.shim$u7d$$u7d$17haea2aad4c972e4d3E:
.Lfunc_begin4:
	.file	7 "/rustc/9eb3afe9ebe9c7d2b84b71002d44f4a0edac95e0/library/core/src/ops" "function.rs"
	.loc	7 250 0
	.cfi_startproc
	sub	rsp, 24
	.cfi_def_cfa_offset 32
	mov	qword ptr [rsp + 16], rdi
.Ltmp13:
	.loc	7 250 5 prologue_end
	mov	rdi, qword ptr [rdi]
	call	_ZN4core3ops8function6FnOnce9call_once17hb0251e50aba963d0E
	add	rsp, 24
	.cfi_def_cfa_offset 8
	ret
.Ltmp14:
.Lfunc_end4:
	.size	_ZN4core3ops8function6FnOnce40call_once$u7b$$u7b$vtable.shim$u7d$$u7d$17haea2aad4c972e4d3E, .Lfunc_end4-_ZN4core3ops8function6FnOnce40call_once$u7b$$u7b$vtable.shim$u7d$$u7d$17haea2aad4c972e4d3E
	.cfi_endproc

	.section	.text._ZN4core3ops8function6FnOnce9call_once17h37aad2ac82fd44a2E,"ax",@progbits
	.p2align	4, 0x90
	.type	_ZN4core3ops8function6FnOnce9call_once17h37aad2ac82fd44a2E,@function
_ZN4core3ops8function6FnOnce9call_once17h37aad2ac82fd44a2E:
.Lfunc_begin5:
	.loc	7 250 0
	.cfi_startproc
	sub	rsp, 24
	.cfi_def_cfa_offset 32
	mov	qword ptr [rsp + 16], rdi
.Ltmp15:
	.loc	7 250 5 prologue_end
	call	rdi
	add	rsp, 24
	.cfi_def_cfa_offset 8
	ret
.Ltmp16:
.Lfunc_end5:
	.size	_ZN4core3ops8function6FnOnce9call_once17h37aad2ac82fd44a2E, .Lfunc_end5-_ZN4core3ops8function6FnOnce9call_once17h37aad2ac82fd44a2E
	.cfi_endproc

	.section	.text._ZN4core3ops8function6FnOnce9call_once17hb0251e50aba963d0E,"ax",@progbits
	.p2align	4, 0x90
	.type	_ZN4core3ops8function6FnOnce9call_once17hb0251e50aba963d0E,@function
_ZN4core3ops8function6FnOnce9call_once17hb0251e50aba963d0E:
.Lfunc_begin6:
	.loc	7 250 0
	.cfi_startproc
	.cfi_personality 155, DW.ref.rust_eh_personality
	.cfi_lsda 27, .Lexception0
	sub	rsp, 40
	.cfi_def_cfa_offset 48
	mov	qword ptr [rsp + 8], rdi
.Ltmp17:
	lea	rdi, [rsp + 8]
.Ltmp20:
	.loc	7 250 5 prologue_end
	call	_ZN3std2rt10lang_start28_$u7b$$u7b$closure$u7d$$u7d$17h2cc189fd19c96a13E
.Ltmp18:
	mov	dword ptr [rsp + 4], eax
	jmp	.LBB6_3
.LBB6_1:
	mov	rdi, qword ptr [rsp + 24]
	call	_Unwind_Resume@PLT
	ud2
.LBB6_2:
.Ltmp19:
	.loc	7 0 5 is_stmt 0
	mov	rcx, rax
	mov	eax, edx
	mov	qword ptr [rsp + 24], rcx
	mov	dword ptr [rsp + 32], eax
	jmp	.LBB6_1
.LBB6_3:
	mov	eax, dword ptr [rsp + 4]
	.loc	7 250 5
	add	rsp, 40
	.cfi_def_cfa_offset 8
	ret
.Ltmp21:
.Lfunc_end6:
	.size	_ZN4core3ops8function6FnOnce9call_once17hb0251e50aba963d0E, .Lfunc_end6-_ZN4core3ops8function6FnOnce9call_once17hb0251e50aba963d0E
	.cfi_endproc
	.section	.gcc_except_table._ZN4core3ops8function6FnOnce9call_once17hb0251e50aba963d0E,"a",@progbits
	.p2align	2
GCC_except_table6:
.Lexception0:
	.byte	255
	.byte	255
	.byte	1
	.uleb128 .Lcst_end0-.Lcst_begin0
.Lcst_begin0:
	.uleb128 .Ltmp17-.Lfunc_begin6
	.uleb128 .Ltmp18-.Ltmp17
	.uleb128 .Ltmp19-.Lfunc_begin6
	.byte	0
	.uleb128 .Ltmp18-.Lfunc_begin6
	.uleb128 .Lfunc_end6-.Ltmp18
	.byte	0
	.byte	0
.Lcst_end0:
	.p2align	2

	.section	".text._ZN4core3ptr85drop_in_place$LT$std..rt..lang_start$LT$$LP$$RP$$GT$..$u7b$$u7b$closure$u7d$$u7d$$GT$17hdd5b92b63b7e6234E","ax",@progbits
	.p2align	4, 0x90
	.type	_ZN4core3ptr85drop_in_place$LT$std..rt..lang_start$LT$$LP$$RP$$GT$..$u7b$$u7b$closure$u7d$$u7d$$GT$17hdd5b92b63b7e6234E,@function
_ZN4core3ptr85drop_in_place$LT$std..rt..lang_start$LT$$LP$$RP$$GT$..$u7b$$u7b$closure$u7d$$u7d$$GT$17hdd5b92b63b7e6234E:
.Lfunc_begin7:
	.file	8 "/rustc/9eb3afe9ebe9c7d2b84b71002d44f4a0edac95e0/library/core/src/ptr" "mod.rs"
	.loc	8 490 0 is_stmt 1
	.cfi_startproc
	push	rax
	.cfi_def_cfa_offset 16
	mov	qword ptr [rsp], rdi
.Ltmp22:
	.loc	8 490 1 prologue_end
	pop	rax
	.cfi_def_cfa_offset 8
	ret
.Ltmp23:
.Lfunc_end7:
	.size	_ZN4core3ptr85drop_in_place$LT$std..rt..lang_start$LT$$LP$$RP$$GT$..$u7b$$u7b$closure$u7d$$u7d$$GT$17hdd5b92b63b7e6234E, .Lfunc_end7-_ZN4core3ptr85drop_in_place$LT$std..rt..lang_start$LT$$LP$$RP$$GT$..$u7b$$u7b$closure$u7d$$u7d$$GT$17hdd5b92b63b7e6234E
	.cfi_endproc

	.section	".text._ZN54_$LT$$LP$$RP$$u20$as$u20$std..process..Termination$GT$6report17ha97814c312775b23E","ax",@progbits
	.p2align	4, 0x90
	.type	_ZN54_$LT$$LP$$RP$$u20$as$u20$std..process..Termination$GT$6report17ha97814c312775b23E,@function
_ZN54_$LT$$LP$$RP$$u20$as$u20$std..process..Termination$GT$6report17ha97814c312775b23E:
.Lfunc_begin8:
	.loc	4 2182 0
	.cfi_startproc
	push	rax
	.cfi_def_cfa_offset 16
.Ltmp24:
	.loc	4 2184 6 prologue_end
	xor	eax, eax
	pop	rcx
	.cfi_def_cfa_offset 8
	ret
.Ltmp25:
.Lfunc_end8:
	.size	_ZN54_$LT$$LP$$RP$$u20$as$u20$std..process..Termination$GT$6report17ha97814c312775b23E, .Lfunc_end8-_ZN54_$LT$$LP$$RP$$u20$as$u20$std..process..Termination$GT$6report17ha97814c312775b23E
	.cfi_endproc

	.section	.text._ZN10helloworld4main17ha99aacde1817b611E,"ax",@progbits
	.p2align	4, 0x90
	.type	_ZN10helloworld4main17ha99aacde1817b611E,@function
_ZN10helloworld4main17ha99aacde1817b611E:
.Lfunc_begin9:
	.file	9 "/home/akarez/OneDrive/CIS4915/Code/gloriousPCLC/helloworld" "src/main.rs"
	.loc	9 1 0
	.cfi_startproc
	sub	rsp, 56
	.cfi_def_cfa_offset 64
.Ltmp26:
	.loc	9 2 5 prologue_end
	lea	rdi, [rsp + 8]
	lea	rsi, [rip + .L__unnamed_5]
	mov	edx, 1
	lea	rcx, [rip + .L__unnamed_3]
	xor	eax, eax
	mov	r8d, eax
	call	_ZN4core3fmt9Arguments6new_v117h717fef1a43433fc4E
	lea	rdi, [rsp + 8]
	call	qword ptr [rip + _ZN3std2io5stdio6_print17h29fdefa1eb13c306E@GOTPCREL]
	.loc	9 3 2
	add	rsp, 56
	.cfi_def_cfa_offset 8
	ret
.Ltmp27:
.Lfunc_end9:
	.size	_ZN10helloworld4main17ha99aacde1817b611E, .Lfunc_end9-_ZN10helloworld4main17ha99aacde1817b611E
	.cfi_endproc

	.section	.text.main,"ax",@progbits
	.globl	main
	.p2align	4, 0x90
	.type	main,@function
main:
.Lfunc_begin10:
	.cfi_startproc
	push	rax
	.cfi_def_cfa_offset 16
	mov	rdx, rsi
	mov	rax, qword ptr [rip + __rustc_debug_gdb_scripts_section__@GOTPCREL]
	mov	al, byte ptr [rax]
	movsxd	rsi, edi
	lea	rdi, [rip + _ZN10helloworld4main17ha99aacde1817b611E]
	xor	ecx, ecx
	call	_ZN3std2rt10lang_start17hf0f0d86f81cb114eE
	pop	rcx
	.cfi_def_cfa_offset 8
	ret
.Lfunc_end10:
	.size	main, .Lfunc_end10-main
	.cfi_endproc

	.type	.L__unnamed_1,@object
	.section	.data.rel.ro..L__unnamed_1,"aw",@progbits
	.p2align	3
.L__unnamed_1:
	.quad	_ZN4core3ptr85drop_in_place$LT$std..rt..lang_start$LT$$LP$$RP$$GT$..$u7b$$u7b$closure$u7d$$u7d$$GT$17hdd5b92b63b7e6234E
	.asciz	"\b\000\000\000\000\000\000\000\b\000\000\000\000\000\000"
	.quad	_ZN4core3ops8function6FnOnce40call_once$u7b$$u7b$vtable.shim$u7d$$u7d$17haea2aad4c972e4d3E
	.quad	_ZN3std2rt10lang_start28_$u7b$$u7b$closure$u7d$$u7d$17h2cc189fd19c96a13E
	.quad	_ZN3std2rt10lang_start28_$u7b$$u7b$closure$u7d$$u7d$17h2cc189fd19c96a13E
	.size	.L__unnamed_1, 48

	.type	.L__unnamed_6,@object
	.section	.rodata..L__unnamed_6,"a",@progbits
.L__unnamed_6:
	.ascii	"invalid args"
	.size	.L__unnamed_6, 12

	.type	.L__unnamed_2,@object
	.section	.data.rel.ro..L__unnamed_2,"aw",@progbits
	.p2align	3
.L__unnamed_2:
	.quad	.L__unnamed_6
	.asciz	"\f\000\000\000\000\000\000"
	.size	.L__unnamed_2, 16

	.type	.L__unnamed_3,@object
	.section	.rodata..L__unnamed_3,"a",@progbits
	.p2align	3
.L__unnamed_3:
	.size	.L__unnamed_3, 0

	.type	.L__unnamed_7,@object
	.section	.rodata..L__unnamed_7,"a",@progbits
.L__unnamed_7:
	.ascii	"/rustc/9eb3afe9ebe9c7d2b84b71002d44f4a0edac95e0/library/core/src/fmt/mod.rs"
	.size	.L__unnamed_7, 75

	.type	.L__unnamed_4,@object
	.section	.data.rel.ro..L__unnamed_4,"aw",@progbits
	.p2align	3
.L__unnamed_4:
	.quad	.L__unnamed_7
	.asciz	"K\000\000\000\000\000\000\000\221\001\000\000\r\000\000"
	.size	.L__unnamed_4, 24

	.type	.L__unnamed_8,@object
	.section	.rodata..L__unnamed_8,"a",@progbits
.L__unnamed_8:
	.ascii	"Hello, world!\n"
	.size	.L__unnamed_8, 14

	.type	.L__unnamed_5,@object
	.section	.data.rel.ro..L__unnamed_5,"aw",@progbits
	.p2align	3
.L__unnamed_5:
	.quad	.L__unnamed_8
	.asciz	"\016\000\000\000\000\000\000"
	.size	.L__unnamed_5, 16

	.type	__rustc_debug_gdb_scripts_section__,@object
	.section	.debug_gdb_scripts,"aMS",@progbits,1,unique,1
	.weak	__rustc_debug_gdb_scripts_section__
__rustc_debug_gdb_scripts_section__:
	.asciz	"\001gdb_load_rust_pretty_printers.py"
	.size	__rustc_debug_gdb_scripts_section__, 34

	.section	.data.rel.ro..L__unnamed_1,"aw",@progbits
.Lsec_end0:
	.section	.text._ZN3std10sys_common9backtrace28__rust_begin_short_backtrace17he304cdf2316c41d9E,"ax",@progbits
.Lsec_end1:
	.section	.text._ZN3std2rt10lang_start17hf0f0d86f81cb114eE,"ax",@progbits
.Lsec_end2:
	.section	".text._ZN3std2rt10lang_start28_$u7b$$u7b$closure$u7d$$u7d$17h2cc189fd19c96a13E","ax",@progbits
.Lsec_end3:
	.section	.text._ZN4core3fmt9Arguments6new_v117h717fef1a43433fc4E,"ax",@progbits
.Lsec_end4:
	.section	".text._ZN4core3ops8function6FnOnce40call_once$u7b$$u7b$vtable.shim$u7d$$u7d$17haea2aad4c972e4d3E","ax",@progbits
.Lsec_end5:
	.section	.text._ZN4core3ops8function6FnOnce9call_once17h37aad2ac82fd44a2E,"ax",@progbits
.Lsec_end6:
	.section	.text._ZN4core3ops8function6FnOnce9call_once17hb0251e50aba963d0E,"ax",@progbits
.Lsec_end7:
	.section	".text._ZN4core3ptr85drop_in_place$LT$std..rt..lang_start$LT$$LP$$RP$$GT$..$u7b$$u7b$closure$u7d$$u7d$$GT$17hdd5b92b63b7e6234E","ax",@progbits
.Lsec_end8:
	.section	".text._ZN54_$LT$$LP$$RP$$u20$as$u20$std..process..Termination$GT$6report17ha97814c312775b23E","ax",@progbits
.Lsec_end9:
	.section	.text._ZN10helloworld4main17ha99aacde1817b611E,"ax",@progbits
.Lsec_end10:
	.section	.data.DW.ref.rust_eh_personality,"aGw",@progbits,DW.ref.rust_eh_personality,comdat
	.p2align	3
	.type	DW.ref.rust_eh_personality,@object
	.size	DW.ref.rust_eh_personality, 8
DW.ref.rust_eh_personality:
	.quad	rust_eh_personality
	.section	".note.GNU-stack","",@progbits